Certificate:
    Data:
        Version: 3 (0x2)
        Serial Number: 9710724193818922035 (0x86c36c34645e4c33)
    Signature Algorithm: sha1WithRSAEncryption
        Issuer: C=KR, ST=Seoul, L=Seoul, O=CA Ltd., OU=CA, CN=ca.com/emailAddress=ca@ca.com
        Validity
            Not Before: Jul 29 07:35:53 2019 GMT
            Not After : Jul 28 07:35:53 2020 GMT
        Subject: C=KR, ST=Seoul, L=Seoul, O=mmlab, OU=mmlab, CN=pub.mmlab.snu.ac.kr/emailAddress=pub@mmlab.snu.ac.kr
        Subject Public Key Info:
            Public Key Algorithm: rsaEncryption
                Public-Key: (2048 bit)
                Modulus:
                    00:bd:84:9c:30:7d:68:0a:e4:c2:28:aa:6e:32:52:
                    f2:34:49:61:9e:b6:17:56:96:99:4f:53:ef:b2:04:
                    6f:db:bd:f4:17:78:d1:67:98:bd:4d:ca:28:64:29:
                    a3:95:de:7a:1e:2d:1c:c3:81:2e:92:e5:53:24:54:
                    d3:cb:63:16:ba:ef:25:d7:26:86:ea:1a:65:95:08:
                    e1:f3:d4:51:37:f5:be:35:e7:f2:e6:28:79:e4:e7:
                    31:12:a8:4a:f4:49:b8:5a:9c:d6:50:0b:7b:12:59:
                    93:b2:fd:1e:af:f0:ff:cd:fc:a0:c8:35:d4:15:ea:
                    c6:cf:82:2d:fe:83:39:3d:68:d4:6c:8f:b9:33:d2:
                    a2:cc:9a:95:36:c4:d6:cf:99:9f:f2:78:f9:4d:fe:
                    f2:48:e7:c2:15:24:05:7b:83:fc:1e:d9:7b:ed:23:
                    bc:0c:b2:3d:56:68:2b:52:b5:fd:17:4e:65:a7:6c:
                    5f:f7:fa:e1:f4:2b:fa:54:28:35:37:77:d1:d0:54:
                    b0:7d:b3:85:77:65:32:6b:ab:b9:ce:50:63:6f:69:
                    ce:61:86:cd:a6:5d:bd:09:a7:19:69:96:fa:d8:d6:
                    67:03:95:67:b1:dd:b2:50:a4:87:f5:99:c9:47:9b:
                    11:36:97:d2:29:e0:e0:6f:81:bc:fc:9b:da:05:5f:
                    db:b3
                Exponent: 65537 (0x10001)
        X509v3 extensions:
            X509v3 Basic Constraints: 
                CA:FALSE
            Netscape Comment: 
                OpenSSL Generated Certificate
            X509v3 Subject Key Identifier: 
                FF:AA:F7:27:C6:98:13:C3:50:F4:F2:9B:4F:DE:35:5C:DE:EF:1B:15
            X509v3 Authority Key Identifier: 
                keyid:66:E9:49:99:D9:13:17:7B:20:FF:FF:72:95:06:27:69:D7:3A:86:8A

    Signature Algorithm: sha1WithRSAEncryption
         17:cd:34:3c:7a:9f:f3:3c:b4:51:60:19:1d:8d:ea:d8:71:48:
         7e:17:75:e8:f8:cf:89:74:5a:e3:b1:9b:4d:e1:a8:82:5e:d3:
         50:24:cc:ab:4f:b4:59:79:41:95:e9:05:1c:97:ba:fb:0b:00:
         00:37:d6:0f:2d:26:85:03:40:27:ed:1a:a3:bb:26:79:57:9b:
         17:d2:24:2f:8c:56:30:ed:8b:24:fc:ec:60:e6:5a:98:2d:51:
         6b:00:93:40:71:df:3d:20:e4:29:32:2b:18:46:cc:1e:de:c3:
         c1:df:a0:41:47:42:11:b3:44:d9:c3:5c:e0:cd:ac:81:60:e2:
         0e:d3:7d:6e:b1:64:4e:c9:e4:82:0f:24:42:eb:0d:5b:fc:46:
         b4:05:ae:aa:27:3e:46:17:78:68:4c:6b:fc:ad:46:80:0c:38:
         b2:89:8f:33:35:d4:b2:90:5f:10:6f:11:52:56:a5:e4:b5:7d:
         8c:0a:4a:56:06:15:27:3e:83:88:60:8d:64:14:e4:16:a0:ee:
         ae:49:44:71:c4:7d:47:ee:44:32:a9:61:65:b0:25:23:ec:d7:
         18:12:49:52:21:2a:77:81:a7:1f:cc:b9:33:cc:14:50:48:c4:
         a8:44:1a:44:9b:29:85:c6:a2:9e:d7:6a:a1:75:98:44:15:d4:
         96:14:01:ca
-----BEGIN CERTIFICATE-----
MIIEBTCCAu2gAwIBAgIJAIbDbDRkXkwzMA0GCSqGSIb3DQEBBQUAMHcxCzAJBgNV
BAYTAktSMQ4wDAYDVQQIDAVTZW91bDEOMAwGA1UEBwwFU2VvdWwxEDAOBgNVBAoM
B0NBIEx0ZC4xCzAJBgNVBAsMAkNBMQ8wDQYDVQQDDAZjYS5jb20xGDAWBgkqhkiG
9w0BCQEWCWNhQGNhLmNvbTAeFw0xOTA3MjkwNzM1NTNaFw0yMDA3MjgwNzM1NTNa
MIGPMQswCQYDVQQGEwJLUjEOMAwGA1UECAwFU2VvdWwxDjAMBgNVBAcMBVNlb3Vs
MQ4wDAYDVQQKDAVtbWxhYjEOMAwGA1UECwwFbW1sYWIxHDAaBgNVBAMME3B1Yi5t
bWxhYi5zbnUuYWMua3IxIjAgBgkqhkiG9w0BCQEWE3B1YkBtbWxhYi5zbnUuYWMu
a3IwggEiMA0GCSqGSIb3DQEBAQUAA4IBDwAwggEKAoIBAQC9hJwwfWgK5MIoqm4y
UvI0SWGethdWlplPU++yBG/bvfQXeNFnmL1NyihkKaOV3noeLRzDgS6S5VMkVNPL
Yxa67yXXJobqGmWVCOHz1FE39b415/LmKHnk5zESqEr0SbhanNZQC3sSWZOy/R6v
8P/N/KDINdQV6sbPgi3+gzk9aNRsj7kz0qLMmpU2xNbPmZ/yePlN/vJI58IVJAV7
g/we2XvtI7wMsj1WaCtStf0XTmWnbF/3+uH0K/pUKDU3d9HQVLB9s4V3ZTJrq7nO
UGNvac5hhs2mXb0JpxlplvrY1mcDlWex3bJQpIf1mclHmxE2l9Ip4OBvgbz8m9oF
X9uzAgMBAAGjezB5MAkGA1UdEwQCMAAwLAYJYIZIAYb4QgENBB8WHU9wZW5TU0wg
R2VuZXJhdGVkIENlcnRpZmljYXRlMB0GA1UdDgQWBBT/qvcnxpgTw1D08ptP3jVc
3u8bFTAfBgNVHSMEGDAWgBRm6UmZ2RMXeyD//3KVBidp1zqGijANBgkqhkiG9w0B
AQUFAAOCAQEAF800PHqf8zy0UWAZHY3q2HFIfhd16PjPiXRa47GbTeGogl7TUCTM
q0+0WXlBlekFHJe6+wsAADfWDy0mhQNAJ+0ao7smeVebF9IkL4xWMO2LJPzsYOZa
mC1RawCTQHHfPSDkKTIrGEbMHt7Dwd+gQUdCEbNE2cNc4M2sgWDiDtN9brFkTsnk
gg8kQusNW/xGtAWuqic+Rhd4aExr/K1GgAw4somPMzXUspBfEG8RUlal5LV9jApK
VgYVJz6DiGCNZBTkFqDurklEccR9R+5EMqlhZbAlI+zXGBJJUiEqd4GnH8y5M8wU
UEjEqEQaRJsphcaintdqoXWYRBXUlhQByg==
-----END CERTIFICATE-----
