Certificate:
    Data:
        Version: 3 (0x2)
        Serial Number: 9710724193818922034 (0x86c36c34645e4c32)
    Signature Algorithm: sha1WithRSAEncryption
        Issuer: C=KR, ST=Seoul, L=Seoul, O=CA Ltd., OU=CA, CN=ca.com/emailAddress=ca@ca.com
        Validity
            Not Before: Jul 23 14:50:05 2019 GMT
            Not After : Jul 22 14:50:05 2020 GMT
        Subject: C=KR, ST=Seoul, L=Seoul, O=rsa cert, OU=rsa, CN=*.rsa.com/emailAddress=rsa@rsa.com
        Subject Public Key Info:
            Public Key Algorithm: rsaEncryption
                Public-Key: (2048 bit)
                Modulus:
                    00:b1:07:b4:4b:46:1e:6c:79:2a:d1:f9:a8:3f:58:
                    aa:2b:6b:81:ec:af:01:cf:86:0f:9f:08:9d:be:94:
                    21:51:b1:da:5b:be:7f:97:49:6d:e7:7e:2f:46:62:
                    0c:a0:b3:af:1c:af:1f:f0:67:f6:72:46:f8:3d:94:
                    69:23:b8:b6:a2:23:8b:a6:61:c4:5f:0b:f2:db:05:
                    9d:72:39:35:cf:5a:79:ac:c8:bf:1c:d2:cb:de:31:
                    10:57:07:55:0b:f4:aa:f8:a3:6a:8d:72:2c:58:70:
                    da:01:21:f7:4f:87:7a:a6:66:e9:bd:03:8c:5c:f2:
                    bf:2b:1b:ff:e4:b7:75:79:e4:52:64:85:db:e7:5f:
                    43:c4:f6:ac:85:82:00:57:66:2e:79:9e:fd:d4:b2:
                    44:22:a8:8b:46:e9:65:fb:13:f8:87:bb:4a:c5:3d:
                    67:bc:5a:89:a2:d9:8d:e7:bc:8d:da:00:fa:9b:ed:
                    7e:61:ba:ba:57:4c:b9:ed:50:f7:81:f5:17:0b:d5:
                    44:7b:a6:90:c1:7d:d3:c0:14:8b:ad:38:1c:9a:ad:
                    4d:f6:a4:89:9c:10:49:b6:94:1a:97:f6:20:78:24:
                    d8:94:45:fc:26:49:2e:ac:f8:ab:08:8d:ef:e5:60:
                    47:2f:54:91:46:19:4e:5d:ce:1a:2f:3e:c7:e1:3e:
                    10:97
                Exponent: 65537 (0x10001)
        X509v3 extensions:
            X509v3 Basic Constraints: 
                CA:FALSE
            Netscape Comment: 
                OpenSSL Generated Certificate
            X509v3 Subject Key Identifier: 
                A7:61:7E:9F:51:16:59:B6:84:60:0F:A8:F8:16:15:02:21:90:CE:BA
            X509v3 Authority Key Identifier: 
                keyid:66:E9:49:99:D9:13:17:7B:20:FF:FF:72:95:06:27:69:D7:3A:86:8A

    Signature Algorithm: sha1WithRSAEncryption
         43:cd:11:52:30:9c:2a:2c:5d:2b:20:4e:70:0f:23:c7:2d:2d:
         96:0e:c6:e3:a3:92:fc:f8:5c:64:0f:70:6b:58:03:ea:94:e2:
         4b:1a:d4:bb:b4:ed:50:d6:fb:a3:19:ff:ea:5a:93:5f:9a:8c:
         d4:39:1c:f9:43:26:d8:b2:90:f8:01:d4:ef:ea:f2:b1:f8:f1:
         c1:34:24:37:f0:93:75:f7:96:55:2e:74:c6:b0:bd:49:58:5b:
         f0:67:e7:dc:87:ce:ea:78:c2:26:09:c9:7d:71:36:22:6c:ab:
         5c:f8:0e:13:fa:f9:6b:67:5b:3d:3c:20:d1:16:fd:28:78:7f:
         47:45:e0:b0:58:ea:88:19:8f:d8:81:44:54:b2:f9:84:ee:ec:
         58:84:c9:79:42:4e:b0:2e:fa:9a:cd:ae:72:e3:6b:d6:0c:aa:
         1d:60:2b:6a:9c:89:0b:fe:e9:cb:90:d3:b8:ae:fe:4b:67:67:
         eb:e9:f4:eb:f1:af:fc:fa:a2:a0:68:1a:df:a3:c4:74:1f:b2:
         60:9e:f9:ce:b3:e2:22:cc:24:2d:ee:62:2c:cc:68:50:a8:0b:
         2c:16:b1:e1:9d:7a:32:c8:d5:64:b2:4a:d8:b5:64:76:13:ce:
         00:3c:07:32:6e:bc:dc:ed:b1:31:2a:d4:3e:30:70:37:79:89:
         da:00:fa:73
-----BEGIN CERTIFICATE-----
MIID8zCCAtugAwIBAgIJAIbDbDRkXkwyMA0GCSqGSIb3DQEBBQUAMHcxCzAJBgNV
BAYTAktSMQ4wDAYDVQQIDAVTZW91bDEOMAwGA1UEBwwFU2VvdWwxEDAOBgNVBAoM
B0NBIEx0ZC4xCzAJBgNVBAsMAkNBMQ8wDQYDVQQDDAZjYS5jb20xGDAWBgkqhkiG
9w0BCQEWCWNhQGNhLmNvbTAeFw0xOTA3MjMxNDUwMDVaFw0yMDA3MjIxNDUwMDVa
MH4xCzAJBgNVBAYTAktSMQ4wDAYDVQQIDAVTZW91bDEOMAwGA1UEBwwFU2VvdWwx
ETAPBgNVBAoMCHJzYSBjZXJ0MQwwCgYDVQQLDANyc2ExEjAQBgNVBAMMCSoucnNh
LmNvbTEaMBgGCSqGSIb3DQEJARYLcnNhQHJzYS5jb20wggEiMA0GCSqGSIb3DQEB
AQUAA4IBDwAwggEKAoIBAQCxB7RLRh5seSrR+ag/WKora4HsrwHPhg+fCJ2+lCFR
sdpbvn+XSW3nfi9GYgygs68crx/wZ/ZyRvg9lGkjuLaiI4umYcRfC/LbBZ1yOTXP
WnmsyL8c0sveMRBXB1UL9Kr4o2qNcixYcNoBIfdPh3qmZum9A4xc8r8rG//kt3V5
5FJkhdvnX0PE9qyFggBXZi55nv3UskQiqItG6WX7E/iHu0rFPWe8Womi2Y3nvI3a
APqb7X5hurpXTLntUPeB9RcL1UR7ppDBfdPAFIutOByarU32pImcEEm2lBqX9iB4
JNiURfwmSS6s+KsIje/lYEcvVJFGGU5dzhovPsfhPhCXAgMBAAGjezB5MAkGA1Ud
EwQCMAAwLAYJYIZIAYb4QgENBB8WHU9wZW5TU0wgR2VuZXJhdGVkIENlcnRpZmlj
YXRlMB0GA1UdDgQWBBSnYX6fURZZtoRgD6j4FhUCIZDOujAfBgNVHSMEGDAWgBRm
6UmZ2RMXeyD//3KVBidp1zqGijANBgkqhkiG9w0BAQUFAAOCAQEAQ80RUjCcKixd
KyBOcA8jxy0tlg7G46OS/PhcZA9wa1gD6pTiSxrUu7TtUNb7oxn/6lqTX5qM1Dkc
+UMm2LKQ+AHU7+rysfjxwTQkN/CTdfeWVS50xrC9SVhb8Gfn3IfO6njCJgnJfXE2
ImyrXPgOE/r5a2dbPTwg0Rb9KHh/R0XgsFjqiBmP2IFEVLL5hO7sWITJeUJOsC76
ms2ucuNr1gyqHWArapyJC/7py5DTuK7+S2dn6+n06/Gv/PqioGga36PEdB+yYJ75
zrPiIswkLe5iLMxoUKgLLBax4Z16MsjVZLJK2LVkdhPOADwHMm683O2xMSrUPjBw
N3mJ2gD6cw==
-----END CERTIFICATE-----
