Certificate:
    Data:
        Version: 3 (0x2)
        Serial Number: 9710724193818922036 (0x86c36c34645e4c34)
    Signature Algorithm: sha1WithRSAEncryption
        Issuer: C=KR, ST=Seoul, L=Seoul, O=CA Ltd., OU=CA, CN=ca.com/emailAddress=ca@ca.com
        Validity
            Not Before: Jul 29 07:36:07 2019 GMT
            Not After : Jul 28 07:36:07 2020 GMT
        Subject: C=KR, ST=Seoul, L=Seoul, O=mmlab, OU=mmlab, CN=sub.mmlab.snu.ac.kr/emailAddress=sub@mmlab.snu.ac.kr
        Subject Public Key Info:
            Public Key Algorithm: rsaEncryption
                Public-Key: (2048 bit)
                Modulus:
                    00:c6:a3:ff:92:1c:86:cc:ad:4d:9f:b7:fe:3d:96:
                    73:0f:96:49:bb:36:4f:4f:ab:dd:73:8e:a6:a9:bc:
                    d2:9e:ce:8b:52:ef:c3:75:8e:c0:2b:e2:c0:63:9c:
                    dd:2d:17:0e:7d:80:78:0a:55:de:6e:19:fb:25:6f:
                    11:3e:b5:21:7e:84:27:6a:99:da:19:e5:d9:e6:ce:
                    75:cb:5a:50:ec:1d:bc:7a:18:c5:86:05:7e:e6:9c:
                    09:7e:66:14:34:04:97:38:dd:78:14:fa:eb:ae:16:
                    f6:cd:96:8e:5c:c9:3b:5b:31:9d:6c:ed:13:5e:f7:
                    46:43:4b:97:8b:df:c8:20:03:42:6f:80:9e:4c:85:
                    47:a7:15:d0:85:bc:d7:4b:ad:79:27:37:a7:71:59:
                    d4:b2:76:f3:18:9d:19:a0:77:5c:30:2b:79:6d:43:
                    4d:a9:03:4e:54:43:39:89:9e:2b:e2:68:6f:b9:d1:
                    35:1e:3e:7a:ef:cb:48:a1:56:ca:37:d8:a3:34:df:
                    a3:62:b7:1c:f5:a6:b3:d1:4b:ea:ef:f1:67:67:a3:
                    ff:64:60:dc:cb:7e:5d:f2:fc:04:2e:ab:b8:ef:86:
                    65:fb:13:0b:ab:44:61:79:77:84:ef:1a:f8:17:40:
                    86:b0:cd:e7:46:36:e7:1d:de:c2:11:84:04:c7:3c:
                    c2:9b
                Exponent: 65537 (0x10001)
        X509v3 extensions:
            X509v3 Basic Constraints: 
                CA:FALSE
            Netscape Comment: 
                OpenSSL Generated Certificate
            X509v3 Subject Key Identifier: 
                16:85:34:7D:8C:31:76:3B:CC:72:C5:DA:6C:09:CA:01:B8:39:D7:4B
            X509v3 Authority Key Identifier: 
                keyid:66:E9:49:99:D9:13:17:7B:20:FF:FF:72:95:06:27:69:D7:3A:86:8A

    Signature Algorithm: sha1WithRSAEncryption
         65:4f:06:08:ee:34:29:fe:ed:ea:40:00:2b:dc:32:03:68:4f:
         cf:c4:c8:d0:95:01:10:2f:ca:05:2f:d0:f8:bf:64:6b:76:2a:
         81:3c:43:f0:71:d1:e7:6b:a9:e4:5e:9c:eb:4b:2b:fa:00:35:
         f6:aa:af:6e:18:b3:d2:6e:5c:f1:eb:75:03:4c:f9:a2:47:f5:
         a6:82:28:e2:1e:b5:9c:fa:6c:13:fe:b5:70:cc:15:70:7c:f8:
         38:3d:d5:0c:51:f2:4d:df:48:86:d3:80:cc:a6:07:77:f7:1c:
         86:5c:6c:cc:9e:f0:9d:ac:d9:8e:fc:ee:1e:fc:8d:2b:61:cc:
         dd:d7:a4:fe:b2:83:bb:b3:3c:3e:95:bb:67:61:78:9f:30:c7:
         c3:63:dd:65:8f:77:88:ac:0d:85:ec:71:08:05:e3:94:9b:26:
         d0:e1:e3:2c:6f:2c:81:1c:9f:68:ec:8d:f1:7d:78:50:79:53:
         f3:11:e5:72:8f:44:ee:0b:90:27:da:b6:dd:f5:5e:81:75:14:
         05:a4:a1:67:00:21:e8:25:28:d2:57:c7:61:c2:92:9f:33:fb:
         2f:3f:ef:91:44:23:2f:dd:20:a7:c5:ed:07:9f:9d:57:2e:f3:
         a6:2c:bb:77:58:14:96:1e:08:d4:13:30:51:d0:63:c6:df:ee:
         60:12:ad:eb
-----BEGIN CERTIFICATE-----
MIIEBTCCAu2gAwIBAgIJAIbDbDRkXkw0MA0GCSqGSIb3DQEBBQUAMHcxCzAJBgNV
BAYTAktSMQ4wDAYDVQQIDAVTZW91bDEOMAwGA1UEBwwFU2VvdWwxEDAOBgNVBAoM
B0NBIEx0ZC4xCzAJBgNVBAsMAkNBMQ8wDQYDVQQDDAZjYS5jb20xGDAWBgkqhkiG
9w0BCQEWCWNhQGNhLmNvbTAeFw0xOTA3MjkwNzM2MDdaFw0yMDA3MjgwNzM2MDda
MIGPMQswCQYDVQQGEwJLUjEOMAwGA1UECAwFU2VvdWwxDjAMBgNVBAcMBVNlb3Vs
MQ4wDAYDVQQKDAVtbWxhYjEOMAwGA1UECwwFbW1sYWIxHDAaBgNVBAMME3N1Yi5t
bWxhYi5zbnUuYWMua3IxIjAgBgkqhkiG9w0BCQEWE3N1YkBtbWxhYi5zbnUuYWMu
a3IwggEiMA0GCSqGSIb3DQEBAQUAA4IBDwAwggEKAoIBAQDGo/+SHIbMrU2ft/49
lnMPlkm7Nk9Pq91zjqapvNKezotS78N1jsAr4sBjnN0tFw59gHgKVd5uGfslbxE+
tSF+hCdqmdoZ5dnmznXLWlDsHbx6GMWGBX7mnAl+ZhQ0BJc43XgU+uuuFvbNlo5c
yTtbMZ1s7RNe90ZDS5eL38ggA0JvgJ5MhUenFdCFvNdLrXknN6dxWdSydvMYnRmg
d1wwK3ltQ02pA05UQzmJniviaG+50TUePnrvy0ihVso32KM036Nitxz1prPRS+rv
8Wdno/9kYNzLfl3y/AQuq7jvhmX7EwurRGF5d4TvGvgXQIawzedGNucd3sIRhATH
PMKbAgMBAAGjezB5MAkGA1UdEwQCMAAwLAYJYIZIAYb4QgENBB8WHU9wZW5TU0wg
R2VuZXJhdGVkIENlcnRpZmljYXRlMB0GA1UdDgQWBBQWhTR9jDF2O8xyxdpsCcoB
uDnXSzAfBgNVHSMEGDAWgBRm6UmZ2RMXeyD//3KVBidp1zqGijANBgkqhkiG9w0B
AQUFAAOCAQEAZU8GCO40Kf7t6kAAK9wyA2hPz8TI0JUBEC/KBS/Q+L9ka3YqgTxD
8HHR52up5F6c60sr+gA19qqvbhiz0m5c8et1A0z5okf1poIo4h61nPpsE/61cMwV
cHz4OD3VDFHyTd9IhtOAzKYHd/cchlxszJ7wnazZjvzuHvyNK2HM3dek/rKDu7M8
PpW7Z2F4nzDHw2PdZY93iKwNhexxCAXjlJsm0OHjLG8sgRyfaOyN8X14UHlT8xHl
co9E7guQJ9q23fVegXUUBaShZwAh6CUo0lfHYcKSnzP7Lz/vkUQjL90gp8XtB5+d
Vy7zpiy7d1gUlh4I1BMwUdBjxt/uYBKt6w==
-----END CERTIFICATE-----
